; Function Attrs: mustprogress uwtable
define dso_local noundef zeroext i1 @_ZN7cmState23GetGlobalPropertyAsBoolERKNSt7__cxx1112basic_stringIcSt11char_traitsIcESaIcEEE(ptr noundef nonnull align 8 dereferenceable(705) %0, ptr noundef nonnull align 8 dereferenceable(32) %1) local_unnamed_addr #5 align 2 {
  %3 = tail call ptr @_ZN7cmState17GetGlobalPropertyERKNSt7__cxx1112basic_stringIcSt11char_traitsIcESaIcEEE(ptr noundef nonnull align 8 dereferenceable(705) %0, ptr noundef nonnull align 8 dereferenceable(32) %1)
  %.not.i = icmp eq ptr %3, null
  br i1 %.not.i, label %_ZNK7cmValue4IsOnEv.exit, label %4

4:                                                ; preds = %2
  %5 = load ptr, ptr %3, align 8, !tbaa !125
  %6 = getelementptr inbounds nuw i8, ptr %3, i64 8
  %7 = load i64, ptr %6, align 8, !tbaa !34
  %8 = tail call noundef zeroext i1 @_ZN7cmValue4IsOnESt17basic_string_viewIcSt11char_traitsIcEE(i64 %7, ptr %5) #32
  br label %_ZNK7cmValue4IsOnEv.exit

_ZNK7cmValue4IsOnEv.exit:                         ; preds = %2, %4
  %9 = phi i1 [ false, %2 ], [ %8, %4 ]
  ret i1 %9
}